target datalayout = "e-m:e-p270:32:32-p271:32:32-p272:64:64-i64:64-i128:128-f80:128-n8:16:32:64-S128"
target triple = "x86_64-pc-linux-gnu"

%struct.EVP_BF_KEY = type { %struct.bf_key_st }
%struct.bf_key_st = type { [18 x i32], [1024 x i32] }

; Function Attrs: nounwind uwtable
define internal i32 @bf_init_key(ptr noundef %0, ptr noundef %1, ptr noundef %2, i32 noundef %3) #0 {
  %5 = alloca i32, align 4
  %6 = alloca ptr, align 8
  %7 = alloca ptr, align 8
  %8 = alloca ptr, align 8
  %9 = alloca i32, align 4
  %10 = alloca i32, align 4
  %11 = alloca i32, align 4
  store ptr %0, ptr %6, align 8, !tbaa !3
  store ptr %1, ptr %7, align 8, !tbaa !8
  store ptr %2, ptr %8, align 8, !tbaa !8
  store i32 %3, ptr %9, align 4, !tbaa !10
  call void @llvm.lifetime.start.p0(i64 4, ptr %10) #3
  %12 = load ptr, ptr %6, align 8, !tbaa !3
  %13 = call i32 @EVP_CIPHER_CTX_get_key_length(ptr noundef %12)
  store i32 %13, ptr %10, align 4, !tbaa !10
  %14 = load i32, ptr %10, align 4, !tbaa !10
  %15 = icmp slt i32 %14, 0
  br i1 %15, label %16, label %17

16:                                               ; preds = %4
  store i32 0, ptr %5, align 4
  store i32 1, ptr %11, align 4
  br label %23

17:                                               ; preds = %4
  %18 = load ptr, ptr %6, align 8, !tbaa !3
  %19 = call ptr @EVP_CIPHER_CTX_get_cipher_data(ptr noundef %18)
  %20 = getelementptr inbounds nuw %struct.EVP_BF_KEY, ptr %19, i32 0, i32 0
  %21 = load i32, ptr %10, align 4, !tbaa !10
  %22 = load ptr, ptr %7, align 8, !tbaa !8
  call void @BF_set_key(ptr noundef %20, i32 noundef %21, ptr noundef %22)
  store i32 1, ptr %5, align 4
  store i32 1, ptr %11, align 4
  br label %23

23:                                               ; preds = %17, %16
  call void @llvm.lifetime.end.p0(i64 4, ptr %10) #3
  %24 = load i32, ptr %5, align 4
  ret i32 %24
}