; Function Attrs: nounwind uwtable
define internal range(i32 0, 2) i32 @bf_init_key(ptr noundef %0, ptr noundef %1, ptr readnone captures(none) %2, i32 %3) #1 {
  %5 = tail call i32 @EVP_CIPHER_CTX_get_key_length(ptr noundef %0) #5
  %6 = icmp slt i32 %5, 0
  br i1 %6, label %9, label %7

7:                                                ; preds = %4
  %8 = tail call ptr @EVP_CIPHER_CTX_get_cipher_data(ptr noundef %0) #5
  tail call void @BF_set_key(ptr noundef %8, i32 noundef %5, ptr noundef %1) #5
  br label %9

9:                                                ; preds = %4, %7
  %.0 = phi i32 [ 1, %7 ], [ 0, %4 ]
  ret i32 %.0
}